target datalayout = "e-m:e-p270:32:32-p271:32:32-p272:64:64-i64:64-i128:128-f80:128-n8:16:32:64-S128"
target triple = "x86_64-pc-linux-gnu"

; Function Attrs: alwaysinline nounwind willreturn memory(none) uwtable
define internal zeroext i8 @av_clip_uint8_c(i32 noundef %0) #3 {
  %2 = alloca i8, align 1
  %3 = alloca i32, align 4
  store i32 %0, ptr %3, align 4, !tbaa !9
  %4 = load i32, ptr %3, align 4, !tbaa !9
  %5 = and i32 %4, -256
  %6 = icmp ne i32 %5, 0
  br i1 %6, label %7, label %12

7:                                                ; preds = %1
  %8 = load i32, ptr %3, align 4, !tbaa !9
  %9 = xor i32 %8, -1
  %10 = ashr i32 %9, 31
  %11 = trunc i32 %10 to i8
  store i8 %11, ptr %2, align 1
  br label %15

12:                                               ; preds = %1
  %13 = load i32, ptr %3, align 4, !tbaa !9
  %14 = trunc i32 %13 to i8
  store i8 %14, ptr %2, align 1
  br label %15

15:                                               ; preds = %12, %7
  %16 = load i8, ptr %2, align 1
  ret i8 %16
}

; Function Attrs: nounwind uwtable
define internal void @put_uni_chroma_hv_8(ptr noundef %0, i64 noundef %1, ptr noundef %2, i64 noundef %3, i32 noundef %4, ptr noundef %5, ptr noundef %6, i32 noundef %7) #0 {
  %9 = alloca ptr, align 8
  %10 = alloca i64, align 8
  %11 = alloca ptr, align 8
  %12 = alloca i64, align 8
  %13 = alloca i32, align 4
  %14 = alloca ptr, align 8
  %15 = alloca ptr, align 8
  %16 = alloca i32, align 4
  %17 = alloca [16768 x i16], align 16
  %18 = alloca ptr, align 8
  %19 = alloca ptr, align 8
  %20 = alloca ptr, align 8
  %21 = alloca i64, align 8
  %22 = alloca i64, align 8
  %23 = alloca ptr, align 8
  %24 = alloca i32, align 4
  %25 = alloca i32, align 4
  %26 = alloca i32, align 4
  %27 = alloca i32, align 4
  %28 = alloca i32, align 4
  %29 = alloca i32, align 4
  %30 = alloca i32, align 4
  store ptr %0, ptr %9, align 8, !tbaa !144
  store i64 %1, ptr %10, align 8, !tbaa !146
  store ptr %2, ptr %11, align 8, !tbaa !144
  store i64 %3, ptr %12, align 8, !tbaa !146
  store i32 %4, ptr %13, align 4, !tbaa !9
  store ptr %5, ptr %14, align 8, !tbaa !144
  store ptr %6, ptr %15, align 8, !tbaa !144
  store i32 %7, ptr %16, align 4, !tbaa !9
  call void @llvm.lifetime.start.p0(i64 33536, ptr %17) #8
  call void @llvm.lifetime.start.p0(i64 8, ptr %18) #8
  %31 = getelementptr inbounds [16768 x i16], ptr %17, i64 0, i64 0
  store ptr %31, ptr %18, align 8, !tbaa !142
  call void @llvm.lifetime.start.p0(i64 8, ptr %19) #8
  %32 = load ptr, ptr %11, align 8, !tbaa !144
  store ptr %32, ptr %19, align 8, !tbaa !144
  call void @llvm.lifetime.start.p0(i64 8, ptr %20) #8
  %33 = load ptr, ptr %9, align 8, !tbaa !144
  store ptr %33, ptr %20, align 8, !tbaa !144
  call void @llvm.lifetime.start.p0(i64 8, ptr %21) #8
  %34 = load i64, ptr %12, align 8, !tbaa !146
  %35 = udiv i64 %34, 1
  store i64 %35, ptr %21, align 8, !tbaa !146
  call void @llvm.lifetime.start.p0(i64 8, ptr %22) #8
  %36 = load i64, ptr %10, align 8, !tbaa !146
  %37 = udiv i64 %36, 1
  store i64 %37, ptr %22, align 8, !tbaa !146
  call void @llvm.lifetime.start.p0(i64 8, ptr %23) #8
  %38 = load ptr, ptr %14, align 8, !tbaa !144
  store ptr %38, ptr %23, align 8, !tbaa !144
  call void @llvm.lifetime.start.p0(i64 4, ptr %24) #8
  store i32 6, ptr %24, align 4, !tbaa !9
  call void @llvm.lifetime.start.p0(i64 4, ptr %25) #8
  store i32 32, ptr %25, align 4, !tbaa !9
  %39 = load i64, ptr %21, align 8, !tbaa !146
  %40 = mul nsw i64 1, %39
  %41 = load ptr, ptr %19, align 8, !tbaa !144
  %42 = sub i64 0, %40
  %43 = getelementptr inbounds i8, ptr %41, i64 %42
  store ptr %43, ptr %19, align 8, !tbaa !144
  call void @llvm.lifetime.start.p0(i64 4, ptr %26) #8
  store i32 0, ptr %26, align 4, !tbaa !9
  br label %44

44:                                               ; preds = %122, %8
  %45 = load i32, ptr %26, align 4, !tbaa !9
  %46 = load i32, ptr %13, align 4, !tbaa !9
  %47 = add nsw i32 %46, 3
  %48 = icmp slt i32 %45, %47
  br i1 %48, label %50, label %49

49:                                               ; preds = %44
  store i32 2, ptr %27, align 4
  call void @llvm.lifetime.end.p0(i64 4, ptr %26) #8
  br label %125

50:                                               ; preds = %44
  call void @llvm.lifetime.start.p0(i64 4, ptr %28) #8
  store i32 0, ptr %28, align 4, !tbaa !9
  br label %51

51:                                               ; preds = %113, %50
  %52 = load i32, ptr %28, align 4, !tbaa !9
  %53 = load i32, ptr %16, align 4, !tbaa !9
  %54 = icmp slt i32 %52, %53
  br i1 %54, label %56, label %55

55:                                               ; preds = %51
  store i32 5, ptr %27, align 4
  call void @llvm.lifetime.end.p0(i64 4, ptr %28) #8
  br label %116

56:                                               ; preds = %51
  %57 = load ptr, ptr %23, align 8, !tbaa !144
  %58 = getelementptr inbounds i8, ptr %57, i64 0
  %59 = load i8, ptr %58, align 1, !tbaa !152
  %60 = sext i8 %59 to i32
  %61 = load ptr, ptr %19, align 8, !tbaa !144
  %62 = load i32, ptr %28, align 4, !tbaa !9
  %63 = sub nsw i32 %62, 1
  %64 = sext i32 %63 to i64
  %65 = getelementptr inbounds i8, ptr %61, i64 %64
  %66 = load i8, ptr %65, align 1, !tbaa !152
  %67 = zext i8 %66 to i32
  %68 = mul nsw i32 %60, %67
  %69 = load ptr, ptr %23, align 8, !tbaa !144
  %70 = getelementptr inbounds i8, ptr %69, i64 1
  %71 = load i8, ptr %70, align 1, !tbaa !152
  %72 = sext i8 %71 to i32
  %73 = load ptr, ptr %19, align 8, !tbaa !144
  %74 = load i32, ptr %28, align 4, !tbaa !9
  %75 = sext i32 %74 to i64
  %76 = getelementptr inbounds i8, ptr %73, i64 %75
  %77 = load i8, ptr %76, align 1, !tbaa !152
  %78 = zext i8 %77 to i32
  %79 = mul nsw i32 %72, %78
  %80 = add nsw i32 %68, %79
  %81 = load ptr, ptr %23, align 8, !tbaa !144
  %82 = getelementptr inbounds i8, ptr %81, i64 2
  %83 = load i8, ptr %82, align 1, !tbaa !152
  %84 = sext i8 %83 to i32
  %85 = load ptr, ptr %19, align 8, !tbaa !144
  %86 = load i32, ptr %28, align 4, !tbaa !9
  %87 = add nsw i32 %86, 1
  %88 = sext i32 %87 to i64
  %89 = getelementptr inbounds i8, ptr %85, i64 %88
  %90 = load i8, ptr %89, align 1, !tbaa !152
  %91 = zext i8 %90 to i32
  %92 = mul nsw i32 %84, %91
  %93 = add nsw i32 %80, %92
  %94 = load ptr, ptr %23, align 8, !tbaa !144
  %95 = getelementptr inbounds i8, ptr %94, i64 3
  %96 = load i8, ptr %95, align 1, !tbaa !152
  %97 = sext i8 %96 to i32
  %98 = load ptr, ptr %19, align 8, !tbaa !144
  %99 = load i32, ptr %28, align 4, !tbaa !9
  %100 = add nsw i32 %99, 2
  %101 = sext i32 %100 to i64
  %102 = getelementptr inbounds i8, ptr %98, i64 %101
  %103 = load i8, ptr %102, align 1, !tbaa !152
  %104 = zext i8 %103 to i32
  %105 = mul nsw i32 %97, %104
  %106 = add nsw i32 %93, %105
  %107 = ashr i32 %106, 0
  %108 = trunc i32 %107 to i16
  %109 = load ptr, ptr %18, align 8, !tbaa !142
  %110 = load i32, ptr %28, align 4, !tbaa !9
  %111 = sext i32 %110 to i64
  %112 = getelementptr inbounds i16, ptr %109, i64 %111
  store i16 %108, ptr %112, align 2, !tbaa !148
  br label %113

113:                                              ; preds = %56
  %114 = load i32, ptr %28, align 4, !tbaa !9
  %115 = add nsw i32 %114, 1
  store i32 %115, ptr %28, align 4, !tbaa !9
  br label %51, !llvm.loop !731

116:                                              ; preds = %55
  %117 = load i64, ptr %21, align 8, !tbaa !146
  %118 = load ptr, ptr %19, align 8, !tbaa !144
  %119 = getelementptr inbounds i8, ptr %118, i64 %117
  store ptr %119, ptr %19, align 8, !tbaa !144
  %120 = load ptr, ptr %18, align 8, !tbaa !142
  %121 = getelementptr inbounds i16, ptr %120, i64 128
  store ptr %121, ptr %18, align 8, !tbaa !142
  br label %122

122:                                              ; preds = %116
  %123 = load i32, ptr %26, align 4, !tbaa !9
  %124 = add nsw i32 %123, 1
  store i32 %124, ptr %26, align 4, !tbaa !9
  br label %44, !llvm.loop !732

125:                                              ; preds = %49
  %126 = getelementptr inbounds [16768 x i16], ptr %17, i64 0, i64 0
  %127 = getelementptr inbounds i16, ptr %126, i64 128
  store ptr %127, ptr %18, align 8, !tbaa !142
  %128 = load ptr, ptr %15, align 8, !tbaa !144
  store ptr %128, ptr %23, align 8, !tbaa !144
  call void @llvm.lifetime.start.p0(i64 4, ptr %29) #8
  store i32 0, ptr %29, align 4, !tbaa !9
  br label %129

129:                                              ; preds = %208, %125
  %130 = load i32, ptr %29, align 4, !tbaa !9
  %131 = load i32, ptr %13, align 4, !tbaa !9
  %132 = icmp slt i32 %130, %131
  br i1 %132, label %134, label %133

133:                                              ; preds = %129
  store i32 8, ptr %27, align 4
  call void @llvm.lifetime.end.p0(i64 4, ptr %29) #8
  br label %211

134:                                              ; preds = %129
  call void @llvm.lifetime.start.p0(i64 4, ptr %30) #8
  store i32 0, ptr %30, align 4, !tbaa !9
  br label %135

135:                                              ; preds = %199, %134
  %136 = load i32, ptr %30, align 4, !tbaa !9
  %137 = load i32, ptr %16, align 4, !tbaa !9
  %138 = icmp slt i32 %136, %137
  br i1 %138, label %140, label %139

139:                                              ; preds = %135
  store i32 11, ptr %27, align 4
  call void @llvm.lifetime.end.p0(i64 4, ptr %30) #8
  br label %202

140:                                              ; preds = %135
  %141 = load ptr, ptr %23, align 8, !tbaa !144
  %142 = getelementptr inbounds i8, ptr %141, i64 0
  %143 = load i8, ptr %142, align 1, !tbaa !152
  %144 = sext i8 %143 to i32
  %145 = load ptr, ptr %18, align 8, !tbaa !142
  %146 = load i32, ptr %30, align 4, !tbaa !9
  %147 = sub nsw i32 %146, 128
  %148 = sext i32 %147 to i64
  %149 = getelementptr inbounds i16, ptr %145, i64 %148
  %150 = load i16, ptr %149, align 2, !tbaa !148
  %151 = sext i16 %150 to i32
  %152 = mul nsw i32 %144, %151
  %153 = load ptr, ptr %23, align 8, !tbaa !144
  %154 = getelementptr inbounds i8, ptr %153, i64 1
  %155 = load i8, ptr %154, align 1, !tbaa !152
  %156 = sext i8 %155 to i32
  %157 = load ptr, ptr %18, align 8, !tbaa !142
  %158 = load i32, ptr %30, align 4, !tbaa !9
  %159 = sext i32 %158 to i64
  %160 = getelementptr inbounds i16, ptr %157, i64 %159
  %161 = load i16, ptr %160, align 2, !tbaa !148
  %162 = sext i16 %161 to i32
  %163 = mul nsw i32 %156, %162
  %164 = add nsw i32 %152, %163
  %165 = load ptr, ptr %23, align 8, !tbaa !144
  %166 = getelementptr inbounds i8, ptr %165, i64 2
  %167 = load i8, ptr %166, align 1, !tbaa !152
  %168 = sext i8 %167 to i32
  %169 = load ptr, ptr %18, align 8, !tbaa !142
  %170 = load i32, ptr %30, align 4, !tbaa !9
  %171 = add nsw i32 %170, 128
  %172 = sext i32 %171 to i64
  %173 = getelementptr inbounds i16, ptr %169, i64 %172
  %174 = load i16, ptr %173, align 2, !tbaa !148
  %175 = sext i16 %174 to i32
  %176 = mul nsw i32 %168, %175
  %177 = add nsw i32 %164, %176
  %178 = load ptr, ptr %23, align 8, !tbaa !144
  %179 = getelementptr inbounds i8, ptr %178, i64 3
  %180 = load i8, ptr %179, align 1, !tbaa !152
  %181 = sext i8 %180 to i32
  %182 = load ptr, ptr %18, align 8, !tbaa !142
  %183 = load i32, ptr %30, align 4, !tbaa !9
  %184 = add nsw i32 %183, 256
  %185 = sext i32 %184 to i64
  %186 = getelementptr inbounds i16, ptr %182, i64 %185
  %187 = load i16, ptr %186, align 2, !tbaa !148
  %188 = sext i16 %187 to i32
  %189 = mul nsw i32 %181, %188
  %190 = add nsw i32 %177, %189
  %191 = ashr i32 %190, 6
  %192 = add nsw i32 %191, 32
  %193 = ashr i32 %192, 6
  %194 = call zeroext i8 @av_clip_uint8_c(i32 noundef %193) #9
  %195 = load ptr, ptr %20, align 8, !tbaa !144
  %196 = load i32, ptr %30, align 4, !tbaa !9
  %197 = sext i32 %196 to i64
  %198 = getelementptr inbounds i8, ptr %195, i64 %197
  store i8 %194, ptr %198, align 1, !tbaa !152
  br label %199

199:                                              ; preds = %140
  %200 = load i32, ptr %30, align 4, !tbaa !9
  %201 = add nsw i32 %200, 1
  store i32 %201, ptr %30, align 4, !tbaa !9
  br label %135, !llvm.loop !733

202:                                              ; preds = %139
  %203 = load ptr, ptr %18, align 8, !tbaa !142
  %204 = getelementptr inbounds i16, ptr %203, i64 128
  store ptr %204, ptr %18, align 8, !tbaa !142
  %205 = load i64, ptr %22, align 8, !tbaa !146
  %206 = load ptr, ptr %20, align 8, !tbaa !144
  %207 = getelementptr inbounds i8, ptr %206, i64 %205
  store ptr %207, ptr %20, align 8, !tbaa !144
  br label %208

208:                                              ; preds = %202
  %209 = load i32, ptr %29, align 4, !tbaa !9
  %210 = add nsw i32 %209, 1
  store i32 %210, ptr %29, align 4, !tbaa !9
  br label %129, !llvm.loop !734

211:                                              ; preds = %133
  call void @llvm.lifetime.end.p0(i64 4, ptr %25) #8
  call void @llvm.lifetime.end.p0(i64 4, ptr %24) #8
  call void @llvm.lifetime.end.p0(i64 8, ptr %23) #8
  call void @llvm.lifetime.end.p0(i64 8, ptr %22) #8
  call void @llvm.lifetime.end.p0(i64 8, ptr %21) #8
  call void @llvm.lifetime.end.p0(i64 8, ptr %20) #8
  call void @llvm.lifetime.end.p0(i64 8, ptr %19) #8
  call void @llvm.lifetime.end.p0(i64 8, ptr %18) #8
  call void @llvm.lifetime.end.p0(i64 33536, ptr %17) #8
  ret void
}