; Function Attrs: nofree norecurse nosync nounwind memory(argmem: readwrite) uwtable
define internal void @put_uni_chroma_hv_8(ptr noundef writeonly captures(none) %0, i64 noundef %1, ptr noundef readonly captures(none) %2, i64 noundef %3, i32 noundef %4, ptr noundef readonly captures(none) %5, ptr noundef readonly captures(none) %6, i32 noundef %7) #2 {
  %9 = alloca [16768 x i16], align 16
  call void @llvm.lifetime.start.p0(i64 33536, ptr nonnull %9) #14
  %10 = sub i64 0, %3
  %11 = getelementptr inbounds i8, ptr %2, i64 %10
  %12 = add i32 %4, 3
  %13 = icmp sgt i32 %4, -3
  br i1 %13, label %.preheader60.lr.ph, label %._crit_edge70

.preheader60.lr.ph:                               ; preds = %8
  %14 = icmp sgt i32 %7, 0
  br i1 %14, label %.preheader60.lr.ph.split.us, label %.preheader59

.preheader60.lr.ph.split.us:                      ; preds = %.preheader60.lr.ph
  %15 = getelementptr inbounds nuw i8, ptr %5, i64 3
  %16 = getelementptr inbounds nuw i8, ptr %5, i64 2
  %17 = getelementptr inbounds nuw i8, ptr %5, i64 1
  %18 = load i8, ptr %5, align 1, !tbaa !128
  %19 = sext i8 %18 to i16
  %20 = load i8, ptr %17, align 1, !tbaa !128
  %21 = sext i8 %20 to i16
  %22 = load i8, ptr %16, align 1, !tbaa !128
  %23 = sext i8 %22 to i16
  %24 = load i8, ptr %15, align 1, !tbaa !128
  %25 = sext i8 %24 to i16
  %smax = tail call i32 @llvm.smax.i32(i32 %12, i32 1)
  %wide.trip.count = zext nneg i32 %7 to i64
  br label %.preheader60.us

.preheader60.us:                                  ; preds = %._crit_edge.us, %.preheader60.lr.ph.split.us
  %.05564.us = phi i32 [ 0, %.preheader60.lr.ph.split.us ], [ %49, %._crit_edge.us ]
  %.05663.us = phi ptr [ %9, %.preheader60.lr.ph.split.us ], [ %48, %._crit_edge.us ]
  %.05762.us = phi ptr [ %11, %.preheader60.lr.ph.split.us ], [ %47, %._crit_edge.us ]
  %.pre = load i8, ptr %.05762.us, align 1, !tbaa !128
  br label %26

26:                                               ; preds = %.preheader60.us, %26
  %27 = phi i8 [ %.pre, %.preheader60.us ], [ %37, %26 ]
  %indvars.iv = phi i64 [ 0, %.preheader60.us ], [ %indvars.iv.next, %26 ]
  %28 = getelementptr i8, ptr %.05762.us, i64 %indvars.iv
  %29 = getelementptr i8, ptr %28, i64 -1
  %30 = load i8, ptr %29, align 1, !tbaa !128
  %31 = zext i8 %30 to i16
  %32 = mul nsw i16 %31, %19
  %33 = zext i8 %27 to i16
  %34 = mul nsw i16 %33, %21
  %35 = add i16 %34, %32
  %indvars.iv.next = add nuw nsw i64 %indvars.iv, 1
  %36 = getelementptr inbounds nuw i8, ptr %.05762.us, i64 %indvars.iv.next
  %37 = load i8, ptr %36, align 1, !tbaa !128
  %38 = zext i8 %37 to i16
  %39 = mul nsw i16 %38, %23
  %40 = add i16 %35, %39
  %41 = getelementptr inbounds nuw i8, ptr %28, i64 2
  %42 = load i8, ptr %41, align 1, !tbaa !128
  %43 = zext i8 %42 to i16
  %44 = mul nsw i16 %43, %25
  %45 = add i16 %40, %44
  %46 = getelementptr inbounds nuw i16, ptr %.05663.us, i64 %indvars.iv
  store i16 %45, ptr %46, align 2, !tbaa !124
  %exitcond.not = icmp eq i64 %indvars.iv.next, %wide.trip.count
  br i1 %exitcond.not, label %._crit_edge.us, label %26, !llvm.loop !694

._crit_edge.us:                                   ; preds = %26
  %47 = getelementptr inbounds i8, ptr %.05762.us, i64 %3
  %48 = getelementptr inbounds nuw i8, ptr %.05663.us, i64 256
  %49 = add nuw nsw i32 %.05564.us, 1
  %exitcond75.not = icmp eq i32 %49, %smax
  br i1 %exitcond75.not, label %.preheader59, label %.preheader60.us, !llvm.loop !695

.preheader59:                                     ; preds = %._crit_edge.us, %.preheader60.lr.ph
  %50 = icmp sgt i32 %4, 0
  br i1 %50, label %.preheader.lr.ph, label %._crit_edge70

.preheader.lr.ph:                                 ; preds = %.preheader59
  %51 = icmp sgt i32 %7, 0
  %52 = getelementptr inbounds nuw i8, ptr %6, i64 1
  %53 = getelementptr inbounds nuw i8, ptr %6, i64 2
  %54 = getelementptr inbounds nuw i8, ptr %6, i64 3
  br i1 %51, label %.preheader.us.preheader, label %._crit_edge70

.preheader.us.preheader:                          ; preds = %.preheader.lr.ph
  %.166 = getelementptr inbounds nuw i8, ptr %9, i64 256
  %wide.trip.count79 = zext nneg i32 %7 to i64
  br label %.preheader.us

.preheader.us:                                    ; preds = %.preheader.us.preheader, %._crit_edge.us71
  %.169.us = phi ptr [ %.1.us, %._crit_edge.us71 ], [ %.166, %.preheader.us.preheader ]
  %.05368.us = phi i32 [ %90, %._crit_edge.us71 ], [ 0, %.preheader.us.preheader ]
  %.05867.us = phi ptr [ %89, %._crit_edge.us71 ], [ %0, %.preheader.us.preheader ]
  br label %55

55:                                               ; preds = %.preheader.us, %55
  %indvars.iv76 = phi i64 [ 0, %.preheader.us ], [ %indvars.iv.next77, %55 ]
  %56 = load i8, ptr %6, align 1, !tbaa !128
  %57 = sext i8 %56 to i32
  %58 = getelementptr i16, ptr %.169.us, i64 %indvars.iv76
  %59 = getelementptr i8, ptr %58, i64 -256
  %60 = load i16, ptr %59, align 2, !tbaa !124
  %61 = sext i16 %60 to i32
  %62 = mul nsw i32 %61, %57
  %63 = load i8, ptr %52, align 1, !tbaa !128
  %64 = sext i8 %63 to i32
  %65 = load i16, ptr %58, align 2, !tbaa !124
  %66 = sext i16 %65 to i32
  %67 = mul nsw i32 %66, %64
  %68 = add nsw i32 %67, %62
  %69 = load i8, ptr %53, align 1, !tbaa !128
  %70 = sext i8 %69 to i32
  %71 = getelementptr inbounds nuw i8, ptr %58, i64 256
  %72 = load i16, ptr %71, align 2, !tbaa !124
  %73 = sext i16 %72 to i32
  %74 = mul nsw i32 %73, %70
  %75 = add nsw i32 %68, %74
  %76 = load i8, ptr %54, align 1, !tbaa !128
  %77 = sext i8 %76 to i32
  %78 = getelementptr inbounds nuw i8, ptr %58, i64 512
  %79 = load i16, ptr %78, align 2, !tbaa !124
  %80 = sext i16 %79 to i32
  %81 = mul nsw i32 %80, %77
  %82 = add nsw i32 %75, %81
  %83 = ashr i32 %82, 6
  %84 = add nsw i32 %83, 32
  %85 = ashr i32 %84, 6
  %.not.i.us = icmp ult i32 %85, 256
  %isnotneg.i.us = icmp sgt i32 %85, -1
  %86 = sext i1 %isnotneg.i.us to i8
  %87 = trunc nuw i32 %85 to i8
  %.0.i.us = select i1 %.not.i.us, i8 %87, i8 %86
  %88 = getelementptr inbounds nuw i8, ptr %.05867.us, i64 %indvars.iv76
  store i8 %.0.i.us, ptr %88, align 1, !tbaa !128
  %indvars.iv.next77 = add nuw nsw i64 %indvars.iv76, 1
  %exitcond80.not = icmp eq i64 %indvars.iv.next77, %wide.trip.count79
  br i1 %exitcond80.not, label %._crit_edge.us71, label %55, !llvm.loop !696

._crit_edge.us71:                                 ; preds = %55
  %89 = getelementptr inbounds i8, ptr %.05867.us, i64 %1
  %90 = add nuw nsw i32 %.05368.us, 1
  %.1.us = getelementptr inbounds nuw i8, ptr %.169.us, i64 256
  %exitcond81.not = icmp eq i32 %90, %4
  br i1 %exitcond81.not, label %._crit_edge70, label %.preheader.us, !llvm.loop !697

._crit_edge70:                                    ; preds = %._crit_edge.us71, %8, %.preheader.lr.ph, %.preheader59
  call void @llvm.lifetime.end.p0(i64 33536, ptr nonnull %9) #14
  ret void
}